target datalayout = "e-m:e-p270:32:32-p271:32:32-p272:64:64-i64:64-i128:128-f80:128-n8:16:32:64-S128"
target triple = "x86_64-pc-linux-gnu"

%"class.std::set" = type { %"class.std::_Rb_tree" }
%"class.std::_Rb_tree" = type { %"struct.std::_Rb_tree<std::__cxx11::basic_string<char>, std::__cxx11::basic_string<char>, std::_Identity<std::__cxx11::basic_string<char>>, duckdb_re2::Prefilter::LengthThenLex>::_Rb_tree_impl" }
%"struct.std::_Rb_tree<std::__cxx11::basic_string<char>, std::__cxx11::basic_string<char>, std::_Identity<std::__cxx11::basic_string<char>>, duckdb_re2::Prefilter::LengthThenLex>::_Rb_tree_impl" = type { [8 x i8], %"struct.std::_Rb_tree_header" }
%"struct.std::_Rb_tree_header" = type { %"struct.std::_Rb_tree_node_base", i64 }
%"struct.std::_Rb_tree_node_base" = type { i32, ptr, ptr, ptr }
%"class.duckdb_re2::Prefilter::Info" = type { %"class.std::set", i8, ptr }

@_ZN10duckdb_re29Prefilter4InfoC1Ev = hidden unnamed_addr alias void (ptr), ptr @_ZN10duckdb_re29Prefilter4InfoC2Ev
@_ZN10duckdb_re29Prefilter4InfoD1Ev = hidden unnamed_addr alias void (ptr), ptr @_ZN10duckdb_re29Prefilter4InfoD2Ev

; Function Attrs: mustprogress uwtable
define hidden noundef ptr @_ZN10duckdb_re29Prefilter3AndEPS0_S1_(ptr noundef %0, ptr noundef %1) #0 align 2 {
  %3 = alloca ptr, align 8
  %4 = alloca ptr, align 8
  store ptr %0, ptr %3, align 8, !tbaa !3
  store ptr %1, ptr %4, align 8, !tbaa !3
  %5 = load ptr, ptr %3, align 8, !tbaa !3
  %6 = load ptr, ptr %4, align 8, !tbaa !3
  %7 = call noundef ptr @_ZN10duckdb_re29Prefilter5AndOrENS0_2OpEPS0_S2_(i32 noundef 3, ptr noundef %5, ptr noundef %6)
  ret ptr %7
}

; Function Attrs: mustprogress uwtable
define hidden noundef ptr @_ZN10duckdb_re29Prefilter4Info9TakeMatchEv(ptr noundef nonnull align 8 dereferenceable(64) %0) #0 align 2 {
  %2 = alloca ptr, align 8
  %3 = alloca ptr, align 8
  store ptr %0, ptr %2, align 8, !tbaa !45
  %4 = load ptr, ptr %2, align 8
  %5 = getelementptr inbounds nuw %"class.duckdb_re2::Prefilter::Info", ptr %4, i32 0, i32 1
  %6 = load i8, ptr %5, align 8, !tbaa !47, !range !59, !noundef !60
  %7 = trunc i8 %6 to i1
  br i1 %7, label %8, label %13

8:                                                ; preds = %1
  %9 = getelementptr inbounds nuw %"class.duckdb_re2::Prefilter::Info", ptr %4, i32 0, i32 0
  %10 = call noundef ptr @_ZN10duckdb_re29Prefilter9OrStringsEPSt3setINSt7__cxx1112basic_stringIcSt11char_traitsIcESaIcEEENS0_13LengthThenLexESaIS7_EE(ptr noundef %9)
  %11 = getelementptr inbounds nuw %"class.duckdb_re2::Prefilter::Info", ptr %4, i32 0, i32 2
  store ptr %10, ptr %11, align 8, !tbaa !58
  %12 = getelementptr inbounds nuw %"class.duckdb_re2::Prefilter::Info", ptr %4, i32 0, i32 1
  store i8 0, ptr %12, align 8, !tbaa !47
  br label %13

13:                                               ; preds = %8, %1
  call void @llvm.lifetime.start.p0(i64 8, ptr %3) #18
  %14 = getelementptr inbounds nuw %"class.duckdb_re2::Prefilter::Info", ptr %4, i32 0, i32 2
  %15 = load ptr, ptr %14, align 8, !tbaa !58
  store ptr %15, ptr %3, align 8, !tbaa !3
  %16 = getelementptr inbounds nuw %"class.duckdb_re2::Prefilter::Info", ptr %4, i32 0, i32 2
  store ptr null, ptr %16, align 8, !tbaa !58
  %17 = load ptr, ptr %3, align 8, !tbaa !3
  call void @llvm.lifetime.end.p0(i64 8, ptr %3) #18
  ret ptr %17
}

; Function Attrs: mustprogress uwtable
define hidden noundef ptr @_ZN10duckdb_re29Prefilter4Info3AndEPS1_S2_(ptr noundef %0, ptr noundef %1) #0 align 2 personality ptr @__gxx_personality_v0 {
  %3 = alloca ptr, align 8
  %4 = alloca ptr, align 8
  %5 = alloca ptr, align 8
  %6 = alloca ptr, align 8
  %7 = alloca ptr, align 8
  %8 = alloca i32, align 4
  store ptr %0, ptr %4, align 8, !tbaa !45
  store ptr %1, ptr %5, align 8, !tbaa !45
  %9 = load ptr, ptr %4, align 8, !tbaa !45
  %10 = icmp eq ptr %9, null
  br i1 %10, label %11, label %13

11:                                               ; preds = %2
  %12 = load ptr, ptr %5, align 8, !tbaa !45
  store ptr %12, ptr %3, align 8
  br label %43

13:                                               ; preds = %2
  %14 = load ptr, ptr %5, align 8, !tbaa !45
  %15 = icmp eq ptr %14, null
  br i1 %15, label %16, label %18

16:                                               ; preds = %13
  %17 = load ptr, ptr %4, align 8, !tbaa !45
  store ptr %17, ptr %3, align 8
  br label %43

18:                                               ; preds = %13
  call void @llvm.lifetime.start.p0(i64 8, ptr %6) #18
  %19 = call noalias noundef nonnull ptr @_Znwm(i64 noundef 64) #19
  invoke void @_ZN10duckdb_re29Prefilter4InfoC1Ev(ptr noundef nonnull align 8 dereferenceable(64) %19)
          to label %20 unwind label %39

20:                                               ; preds = %18
  store ptr %19, ptr %6, align 8, !tbaa !45
  %21 = load ptr, ptr %4, align 8, !tbaa !45
  %22 = call noundef ptr @_ZN10duckdb_re29Prefilter4Info9TakeMatchEv(ptr noundef nonnull align 8 dereferenceable(64) %21)
  %23 = load ptr, ptr %5, align 8, !tbaa !45
  %24 = call noundef ptr @_ZN10duckdb_re29Prefilter4Info9TakeMatchEv(ptr noundef nonnull align 8 dereferenceable(64) %23)
  %25 = call noundef ptr @_ZN10duckdb_re29Prefilter3AndEPS0_S1_(ptr noundef %22, ptr noundef %24)
  %26 = load ptr, ptr %6, align 8, !tbaa !45
  %27 = getelementptr inbounds nuw %"class.duckdb_re2::Prefilter::Info", ptr %26, i32 0, i32 2
  store ptr %25, ptr %27, align 8, !tbaa !58
  %28 = load ptr, ptr %6, align 8, !tbaa !45
  %29 = getelementptr inbounds nuw %"class.duckdb_re2::Prefilter::Info", ptr %28, i32 0, i32 1
  store i8 0, ptr %29, align 8, !tbaa !47
  %30 = load ptr, ptr %4, align 8, !tbaa !45
  %31 = icmp eq ptr %30, null
  br i1 %31, label %33, label %32

32:                                               ; preds = %20
  call void @_ZN10duckdb_re29Prefilter4InfoD1Ev(ptr noundef nonnull align 8 dereferenceable(64) %30) #18
  call void @_ZdlPv(ptr noundef %30) #21
  br label %33

33:                                               ; preds = %32, %20
  %34 = load ptr, ptr %5, align 8, !tbaa !45
  %35 = icmp eq ptr %34, null
  br i1 %35, label %37, label %36

36:                                               ; preds = %33
  call void @_ZN10duckdb_re29Prefilter4InfoD1Ev(ptr noundef nonnull align 8 dereferenceable(64) %34) #18
  call void @_ZdlPv(ptr noundef %34) #21
  br label %37

37:                                               ; preds = %36, %33
  %38 = load ptr, ptr %6, align 8, !tbaa !45
  store ptr %38, ptr %3, align 8
  call void @llvm.lifetime.end.p0(i64 8, ptr %6) #18
  br label %43

39:                                               ; preds = %18
  %40 = landingpad { ptr, i32 }
          cleanup
  %41 = extractvalue { ptr, i32 } %40, 0
  store ptr %41, ptr %7, align 8
  %42 = extractvalue { ptr, i32 } %40, 1
  store i32 %42, ptr %8, align 4
  call void @_ZdlPv(ptr noundef %19) #21
  call void @llvm.lifetime.end.p0(i64 8, ptr %6) #18
  br label %45

43:                                               ; preds = %37, %16, %11
  %44 = load ptr, ptr %3, align 8
  ret ptr %44

45:                                               ; preds = %39
  %46 = load ptr, ptr %7, align 8
  %47 = load i32, ptr %8, align 4
  %48 = insertvalue { ptr, i32 } poison, ptr %46, 0
  %49 = insertvalue { ptr, i32 } %48, i32 %47, 1
  resume { ptr, i32 } %49
}