; Function Attrs: mustprogress uwtable
define hidden noundef ptr @_ZN10duckdb_re29Prefilter4Info3AndEPS1_S2_(ptr noundef %0, ptr noundef %1) local_unnamed_addr #0 align 2 personality ptr @__gxx_personality_v0 {
  %3 = icmp eq ptr %0, null
  br i1 %3, label %48, label %4

4:                                                ; preds = %2
  %5 = icmp eq ptr %1, null
  br i1 %5, label %48, label %6

6:                                                ; preds = %4
  %7 = tail call noalias noundef nonnull dereferenceable(64) ptr @_Znwm(i64 noundef 64) #20
  %8 = getelementptr inbounds nuw i8, ptr %7, i64 8
  store i32 0, ptr %8, align 8, !tbaa !40
  %9 = getelementptr inbounds nuw i8, ptr %7, i64 16
  store ptr null, ptr %9, align 8, !tbaa !41
  %10 = getelementptr inbounds nuw i8, ptr %7, i64 24
  store ptr %8, ptr %10, align 8, !tbaa !31
  %11 = getelementptr inbounds nuw i8, ptr %7, i64 32
  store ptr %8, ptr %11, align 8, !tbaa !42
  %12 = getelementptr inbounds nuw i8, ptr %7, i64 40
  store i64 0, ptr %12, align 8, !tbaa !36
  %13 = getelementptr inbounds nuw i8, ptr %7, i64 48
  store i8 0, ptr %13, align 8, !tbaa !43
  %14 = getelementptr inbounds nuw i8, ptr %7, i64 56
  store ptr null, ptr %14, align 8, !tbaa !51
  %15 = getelementptr inbounds nuw i8, ptr %0, i64 48
  %16 = load i8, ptr %15, align 8, !tbaa !43, !range !52, !noundef !53
  %17 = trunc nuw i8 %16 to i1
  br i1 %17, label %18, label %._crit_edge.i

._crit_edge.i:                                    ; preds = %6
  %.phi.trans.insert.i = getelementptr inbounds nuw i8, ptr %0, i64 56
  %.pre.i = load ptr, ptr %.phi.trans.insert.i, align 8, !tbaa !51
  br label %_ZN10duckdb_re29Prefilter4Info9TakeMatchEv.exit

18:                                               ; preds = %6
  %19 = tail call noundef ptr @_ZN10duckdb_re29Prefilter9OrStringsEPSt3setINSt7__cxx1112basic_stringIcSt11char_traitsIcESaIcEEENS0_13LengthThenLexESaIS7_EE(ptr noundef nonnull align 8 dereferenceable(64) %0)
  store i8 0, ptr %15, align 8, !tbaa !43
  br label %_ZN10duckdb_re29Prefilter4Info9TakeMatchEv.exit

_ZN10duckdb_re29Prefilter4Info9TakeMatchEv.exit:  ; preds = %._crit_edge.i, %18
  %20 = phi ptr [ %.pre.i, %._crit_edge.i ], [ %19, %18 ]
  %21 = getelementptr inbounds nuw i8, ptr %0, i64 56
  store ptr null, ptr %21, align 8, !tbaa !51
  %22 = getelementptr inbounds nuw i8, ptr %1, i64 48
  %23 = load i8, ptr %22, align 8, !tbaa !43, !range !52, !noundef !53
  %24 = trunc nuw i8 %23 to i1
  br i1 %24, label %25, label %._crit_edge.i15

._crit_edge.i15:                                  ; preds = %_ZN10duckdb_re29Prefilter4Info9TakeMatchEv.exit
  %.phi.trans.insert.i16 = getelementptr inbounds nuw i8, ptr %1, i64 56
  %.pre.i17 = load ptr, ptr %.phi.trans.insert.i16, align 8, !tbaa !51
  br label %_ZN10duckdb_re29Prefilter4Info9TakeMatchEv.exit18

25:                                               ; preds = %_ZN10duckdb_re29Prefilter4Info9TakeMatchEv.exit
  %26 = tail call noundef ptr @_ZN10duckdb_re29Prefilter9OrStringsEPSt3setINSt7__cxx1112basic_stringIcSt11char_traitsIcESaIcEEENS0_13LengthThenLexESaIS7_EE(ptr noundef nonnull align 8 dereferenceable(64) %1)
  store i8 0, ptr %22, align 8, !tbaa !43
  br label %_ZN10duckdb_re29Prefilter4Info9TakeMatchEv.exit18

_ZN10duckdb_re29Prefilter4Info9TakeMatchEv.exit18: ; preds = %._crit_edge.i15, %25
  %27 = phi ptr [ %.pre.i17, %._crit_edge.i15 ], [ %26, %25 ]
  %28 = getelementptr inbounds nuw i8, ptr %1, i64 56
  store ptr null, ptr %28, align 8, !tbaa !51
  %29 = tail call noundef ptr @_ZN10duckdb_re29Prefilter5AndOrENS0_2OpEPS0_S2_(i32 noundef 3, ptr noundef %20, ptr noundef %27)
  store ptr %29, ptr %14, align 8, !tbaa !51
  store i8 0, ptr %13, align 8, !tbaa !43
  %30 = load ptr, ptr %21, align 8, !tbaa !51
  %31 = icmp eq ptr %30, null
  br i1 %31, label %33, label %32

32:                                               ; preds = %_ZN10duckdb_re29Prefilter4Info9TakeMatchEv.exit18
  tail call void @_ZN10duckdb_re29PrefilterD2Ev(ptr noundef nonnull align 8 dereferenceable(52) %30) #21
  tail call void @_ZdlPv(ptr noundef nonnull %30) #22
  br label %33

33:                                               ; preds = %32, %_ZN10duckdb_re29Prefilter4Info9TakeMatchEv.exit18
  %34 = getelementptr inbounds nuw i8, ptr %0, i64 16
  %35 = load ptr, ptr %34, align 8, !tbaa !41
  invoke void @_ZNSt8_Rb_treeINSt7__cxx1112basic_stringIcSt11char_traitsIcESaIcEEES5_St9_IdentityIS5_EN10duckdb_re29Prefilter13LengthThenLexESaIS5_EE8_M_eraseEPSt13_Rb_tree_nodeIS5_E(ptr noundef nonnull align 8 dereferenceable(64) %0, ptr noundef %35)
          to label %_ZN10duckdb_re29Prefilter4InfoD2Ev.exit unwind label %36

36:                                               ; preds = %33
  %37 = landingpad { ptr, i32 }
          catch ptr null
  %38 = extractvalue { ptr, i32 } %37, 0
  tail call void @__clang_call_terminate(ptr %38) #25
  unreachable

_ZN10duckdb_re29Prefilter4InfoD2Ev.exit:          ; preds = %33
  tail call void @_ZdlPv(ptr noundef nonnull %0) #22
  %39 = load ptr, ptr %28, align 8, !tbaa !51
  %40 = icmp eq ptr %39, null
  br i1 %40, label %42, label %41

41:                                               ; preds = %_ZN10duckdb_re29Prefilter4InfoD2Ev.exit
  tail call void @_ZN10duckdb_re29PrefilterD2Ev(ptr noundef nonnull align 8 dereferenceable(52) %39) #21
  tail call void @_ZdlPv(ptr noundef nonnull %39) #22
  br label %42

42:                                               ; preds = %41, %_ZN10duckdb_re29Prefilter4InfoD2Ev.exit
  %43 = getelementptr inbounds nuw i8, ptr %1, i64 16
  %44 = load ptr, ptr %43, align 8, !tbaa !41
  invoke void @_ZNSt8_Rb_treeINSt7__cxx1112basic_stringIcSt11char_traitsIcESaIcEEES5_St9_IdentityIS5_EN10duckdb_re29Prefilter13LengthThenLexESaIS5_EE8_M_eraseEPSt13_Rb_tree_nodeIS5_E(ptr noundef nonnull align 8 dereferenceable(64) %1, ptr noundef %44)
          to label %_ZN10duckdb_re29Prefilter4InfoD2Ev.exit19 unwind label %45

45:                                               ; preds = %42
  %46 = landingpad { ptr, i32 }
          catch ptr null
  %47 = extractvalue { ptr, i32 } %46, 0
  tail call void @__clang_call_terminate(ptr %47) #25
  unreachable

_ZN10duckdb_re29Prefilter4InfoD2Ev.exit19:        ; preds = %42
  tail call void @_ZdlPv(ptr noundef nonnull %1) #22
  br label %48

48:                                               ; preds = %4, %2, %_ZN10duckdb_re29Prefilter4InfoD2Ev.exit19
  %.0 = phi ptr [ %7, %_ZN10duckdb_re29Prefilter4InfoD2Ev.exit19 ], [ %1, %2 ], [ %0, %4 ]
  ret ptr %.0
}